; Function Attrs: mustprogress uwtable
define hidden void @_ZN3ue210make_fuzzyERNS_8NGHolderEjbRKNS_4GreyE(ptr noundef nonnull align 8 dereferenceable(136) %0, i32 noundef %1, i1 noundef zeroext %2, ptr noundef nonnull readonly align 8 captures(none) dereferenceable(292) %3) local_unnamed_addr #0 personality ptr @__gxx_personality_v0 {
  %5 = alloca %"struct.ue2::ShadowGraph", align 8
  %6 = icmp eq i32 %1, 0
  br i1 %6, label %23, label %7

7:                                                ; preds = %4
  call void @llvm.lifetime.start.p0(i64 224, ptr nonnull %5) #20
  call void @_ZN3ue211ShadowGraphC2ERNS_8NGHolderEjb(ptr noundef nonnull align 8 dereferenceable(224) %5, ptr noundef nonnull align 8 dereferenceable(136) %0, i32 noundef %1, i1 noundef zeroext %2)
  invoke void @_ZN3ue211ShadowGraph10fuzz_graphEv(ptr noundef nonnull align 8 dereferenceable(224) %5)
          to label %8 unwind label %18

8:                                                ; preds = %7
  %9 = getelementptr inbounds nuw i8, ptr %0, i64 8
  %10 = load i64, ptr %9, align 8
  %11 = getelementptr inbounds nuw i8, ptr %3, i64 288
  %12 = load i32, ptr %11, align 8
  %13 = zext i32 %12 to i64
  %14 = icmp ugt i64 %10, %13
  br i1 %14, label %15, label %22

15:                                               ; preds = %8
  %16 = call ptr @__cxa_allocate_exception(i64 48) #20
  invoke void @_ZN3ue218ResourceLimitErrorC1Ev(ptr noundef nonnull align 8 dereferenceable(48) %16)
          to label %17 unwind label %20

17:                                               ; preds = %15
  invoke void @__cxa_throw(ptr nonnull %16, ptr nonnull @_ZTIN3ue218ResourceLimitErrorE, ptr nonnull @_ZN3ue218ResourceLimitErrorD1Ev) #21
          to label %25 unwind label %18

18:                                               ; preds = %17, %7
  %19 = landingpad { ptr, i32 }
          cleanup
  br label %24

20:                                               ; preds = %15
  %21 = landingpad { ptr, i32 }
          cleanup
  call void @__cxa_free_exception(ptr nonnull %16) #20
  br label %24

22:                                               ; preds = %8
  call void @_ZN3ue211ShadowGraphD2Ev(ptr noundef nonnull align 8 dereferenceable(224) %5) #20
  call void @llvm.lifetime.end.p0(i64 224, ptr nonnull %5) #20
  br label %23

23:                                               ; preds = %4, %22
  ret void

24:                                               ; preds = %20, %18
  %.pn = phi { ptr, i32 } [ %19, %18 ], [ %21, %20 ]
  call void @_ZN3ue211ShadowGraphD2Ev(ptr noundef nonnull align 8 dereferenceable(224) %5) #20
  call void @llvm.lifetime.end.p0(i64 224, ptr nonnull %5) #20
  resume { ptr, i32 } %.pn

25:                                               ; preds = %17
  unreachable
}